target datalayout = "e-m:e-p270:32:32-p271:32:32-p272:64:64-i64:64-i128:128-f80:128-n8:16:32:64-S128"
target triple = "x86_64-pc-linux-gnu"

%struct.ImVec2 = type { float, float }
%struct.ExampleTreeNode = type { [28 x i8], i32, ptr, %struct.ImVector.21, i16, i8, i8, i32, %struct.ImVec2 }
%struct.ImVector.21 = type { i32, i32, ptr }

@.str.1010 = private unnamed_addr constant [3 x i8] c"%s\00", align 1
@.str.1134 = private unnamed_addr constant [28 x i8] zeroinitializer, align 1

; Function Attrs: noinline noreturn nounwind uwtable
define linkonce_odr hidden void @__clang_call_terminate(ptr noundef %0) #14 comdat {
  %2 = call ptr @__cxa_begin_catch(ptr %0) #7
  call void @_ZSt9terminatev() #19
  unreachable
}

; Function Attrs: inlinehint mustprogress uwtable
define linkonce_odr dso_local void @_ZN8ImVectorIP15ExampleTreeNodeE7reserveEi(ptr noundef nonnull align 8 dereferenceable(16) %0, i32 noundef %1) #11 comdat align 2 {
  %3 = alloca ptr, align 8
  %4 = alloca i32, align 4
  %5 = alloca ptr, align 8
  store ptr %0, ptr %3, align 8, !tbaa !424
  store i32 %1, ptr %4, align 4, !tbaa !33
  %6 = load ptr, ptr %3, align 8
  %7 = load i32, ptr %4, align 4, !tbaa !33
  %8 = getelementptr inbounds nuw %struct.ImVector.21, ptr %6, i32 0, i32 1
  %9 = load i32, ptr %8, align 4, !tbaa !508
  %10 = icmp sle i32 %7, %9
  br i1 %10, label %11, label %12

11:                                               ; preds = %2
  br label %35

12:                                               ; preds = %2
  call void @llvm.lifetime.start.p0(i64 8, ptr %5) #7
  %13 = load i32, ptr %4, align 4, !tbaa !33
  %14 = sext i32 %13 to i64
  %15 = mul i64 %14, 8
  %16 = call noundef ptr @_ZN5ImGui8MemAllocEm(i64 noundef %15)
  store ptr %16, ptr %5, align 8, !tbaa !426
  %17 = getelementptr inbounds nuw %struct.ImVector.21, ptr %6, i32 0, i32 2
  %18 = load ptr, ptr %17, align 8, !tbaa !491
  %19 = icmp ne ptr %18, null
  br i1 %19, label %20, label %30

20:                                               ; preds = %12
  %21 = load ptr, ptr %5, align 8, !tbaa !426
  %22 = getelementptr inbounds nuw %struct.ImVector.21, ptr %6, i32 0, i32 2
  %23 = load ptr, ptr %22, align 8, !tbaa !491
  %24 = getelementptr inbounds nuw %struct.ImVector.21, ptr %6, i32 0, i32 0
  %25 = load i32, ptr %24, align 8, !tbaa !492
  %26 = sext i32 %25 to i64
  %27 = mul i64 %26, 8
  call void @llvm.memcpy.p0.p0.i64(ptr align 8 %21, ptr align 8 %23, i64 %27, i1 false)
  %28 = getelementptr inbounds nuw %struct.ImVector.21, ptr %6, i32 0, i32 2
  %29 = load ptr, ptr %28, align 8, !tbaa !491
  call void @_ZN5ImGui7MemFreeEPv(ptr noundef %29)
  br label %30

30:                                               ; preds = %20, %12
  %31 = load ptr, ptr %5, align 8, !tbaa !426
  %32 = getelementptr inbounds nuw %struct.ImVector.21, ptr %6, i32 0, i32 2
  store ptr %31, ptr %32, align 8, !tbaa !491
  %33 = load i32, ptr %4, align 4, !tbaa !33
  %34 = getelementptr inbounds nuw %struct.ImVector.21, ptr %6, i32 0, i32 1
  store i32 %33, ptr %34, align 4, !tbaa !508
  call void @llvm.lifetime.end.p0(i64 8, ptr %5) #7
  br label %35

35:                                               ; preds = %30, %11
  ret void
}

; Function Attrs: inlinehint mustprogress nounwind uwtable
define linkonce_odr dso_local noundef i32 @_ZNK8ImVectorIP15ExampleTreeNodeE14_grow_capacityEi(ptr noundef nonnull align 8 dereferenceable(16) %0, i32 noundef %1) #6 comdat align 2 {
  %3 = alloca ptr, align 8
  %4 = alloca i32, align 4
  %5 = alloca i32, align 4
  store ptr %0, ptr %3, align 8, !tbaa !424
  store i32 %1, ptr %4, align 4, !tbaa !33
  %6 = load ptr, ptr %3, align 8
  call void @llvm.lifetime.start.p0(i64 4, ptr %5) #7
  %7 = getelementptr inbounds nuw %struct.ImVector.21, ptr %6, i32 0, i32 1
  %8 = load i32, ptr %7, align 4, !tbaa !508
  %9 = icmp ne i32 %8, 0
  br i1 %9, label %10, label %17

10:                                               ; preds = %2
  %11 = getelementptr inbounds nuw %struct.ImVector.21, ptr %6, i32 0, i32 1
  %12 = load i32, ptr %11, align 4, !tbaa !508
  %13 = getelementptr inbounds nuw %struct.ImVector.21, ptr %6, i32 0, i32 1
  %14 = load i32, ptr %13, align 4, !tbaa !508
  %15 = sdiv i32 %14, 2
  %16 = add nsw i32 %12, %15
  br label %18

17:                                               ; preds = %2
  br label %18

18:                                               ; preds = %17, %10
  %19 = phi i32 [ %16, %10 ], [ 8, %17 ]
  store i32 %19, ptr %5, align 4, !tbaa !33
  %20 = load i32, ptr %5, align 4, !tbaa !33
  %21 = load i32, ptr %4, align 4, !tbaa !33
  %22 = icmp sgt i32 %20, %21
  br i1 %22, label %23, label %25

23:                                               ; preds = %18
  %24 = load i32, ptr %5, align 4, !tbaa !33
  br label %27

25:                                               ; preds = %18
  %26 = load i32, ptr %4, align 4, !tbaa !33
  br label %27

27:                                               ; preds = %25, %23
  %28 = phi i32 [ %24, %23 ], [ %26, %25 ]
  call void @llvm.lifetime.end.p0(i64 4, ptr %5) #7
  ret i32 %28
}

; Function Attrs: inlinehint mustprogress nounwind uwtable
define linkonce_odr dso_local void @_ZN8ImVectorIP15ExampleTreeNodeED2Ev(ptr noundef nonnull align 8 dereferenceable(16) %0) unnamed_addr #6 comdat align 2 personality ptr @__gxx_personality_v0 {
  %2 = alloca ptr, align 8
  store ptr %0, ptr %2, align 8, !tbaa !424
  %3 = load ptr, ptr %2, align 8
  %4 = getelementptr inbounds nuw %struct.ImVector.21, ptr %3, i32 0, i32 2
  %5 = load ptr, ptr %4, align 8, !tbaa !491
  %6 = icmp ne ptr %5, null
  br i1 %6, label %7, label %11

7:                                                ; preds = %1
  %8 = getelementptr inbounds nuw %struct.ImVector.21, ptr %3, i32 0, i32 2
  %9 = load ptr, ptr %8, align 8, !tbaa !491
  invoke void @_ZN5ImGui7MemFreeEPv(ptr noundef %9)
          to label %10 unwind label %12

10:                                               ; preds = %7
  br label %11

11:                                               ; preds = %10, %1
  ret void

12:                                               ; preds = %7
  %13 = landingpad { ptr, i32 }
          catch ptr null
  %14 = extractvalue { ptr, i32 } %13, 0
  call void @__clang_call_terminate(ptr %14) #19
  unreachable
}

; Function Attrs: mustprogress nounwind uwtable
define linkonce_odr dso_local void @_ZN6ImVec2C2Eff(ptr noundef nonnull align 4 dereferenceable(8) %0, float noundef %1, float noundef %2) unnamed_addr #4 comdat align 2 {
  %4 = alloca ptr, align 8
  %5 = alloca float, align 4
  %6 = alloca float, align 4
  store ptr %0, ptr %4, align 8, !tbaa !179
  store float %1, ptr %5, align 4, !tbaa !80
  store float %2, ptr %6, align 4, !tbaa !80
  %7 = load ptr, ptr %4, align 8
  %8 = getelementptr inbounds nuw %struct.ImVec2, ptr %7, i32 0, i32 0
  %9 = load float, ptr %5, align 4, !tbaa !80
  store float %9, ptr %8, align 4, !tbaa !86
  %10 = getelementptr inbounds nuw %struct.ImVec2, ptr %7, i32 0, i32 1
  %11 = load float, ptr %6, align 4, !tbaa !80
  store float %11, ptr %10, align 4, !tbaa !87
  ret void
}

; Function Attrs: inlinehint mustprogress nounwind uwtable
define linkonce_odr dso_local void @_ZN8ImVectorIP15ExampleTreeNodeEC2Ev(ptr noundef nonnull align 8 dereferenceable(16) %0) unnamed_addr #6 comdat align 2 {
  %2 = alloca ptr, align 8
  store ptr %0, ptr %2, align 8, !tbaa !424
  %3 = load ptr, ptr %2, align 8
  %4 = getelementptr inbounds nuw %struct.ImVector.21, ptr %3, i32 0, i32 1
  store i32 0, ptr %4, align 4, !tbaa !508
  %5 = getelementptr inbounds nuw %struct.ImVector.21, ptr %3, i32 0, i32 0
  store i32 0, ptr %5, align 8, !tbaa !492
  %6 = getelementptr inbounds nuw %struct.ImVector.21, ptr %3, i32 0, i32 2
  store ptr null, ptr %6, align 8, !tbaa !491
  ret void
}

; Function Attrs: inlinehint mustprogress nounwind uwtable
define linkonce_odr dso_local void @_ZdlPv12ImNewWrapperS_(ptr noundef %0, ptr noundef %1) #6 comdat {
  %3 = alloca ptr, align 8
  %4 = alloca ptr, align 8
  store ptr %0, ptr %3, align 8, !tbaa !43
  store ptr %1, ptr %4, align 8, !tbaa !43
  ret void
}

; Function Attrs: inlinehint mustprogress uwtable
define linkonce_odr dso_local void @_ZN8ImVectorIP15ExampleTreeNodeE9push_backERKS1_(ptr noundef nonnull align 8 dereferenceable(16) %0, ptr noundef nonnull align 8 dereferenceable(8) %1) #11 comdat align 2 {
  %3 = alloca ptr, align 8
  %4 = alloca ptr, align 8
  store ptr %0, ptr %3, align 8, !tbaa !424
  store ptr %1, ptr %4, align 8, !tbaa !426
  %5 = load ptr, ptr %3, align 8
  %6 = getelementptr inbounds nuw %struct.ImVector.21, ptr %5, i32 0, i32 0
  %7 = load i32, ptr %6, align 8, !tbaa !492
  %8 = getelementptr inbounds nuw %struct.ImVector.21, ptr %5, i32 0, i32 1
  %9 = load i32, ptr %8, align 4, !tbaa !508
  %10 = icmp eq i32 %7, %9
  br i1 %10, label %11, label %16

11:                                               ; preds = %2
  %12 = getelementptr inbounds nuw %struct.ImVector.21, ptr %5, i32 0, i32 0
  %13 = load i32, ptr %12, align 8, !tbaa !492
  %14 = add nsw i32 %13, 1
  %15 = call noundef i32 @_ZNK8ImVectorIP15ExampleTreeNodeE14_grow_capacityEi(ptr noundef nonnull align 8 dereferenceable(16) %5, i32 noundef %14)
  call void @_ZN8ImVectorIP15ExampleTreeNodeE7reserveEi(ptr noundef nonnull align 8 dereferenceable(16) %5, i32 noundef %15)
  br label %16

16:                                               ; preds = %11, %2
  %17 = getelementptr inbounds nuw %struct.ImVector.21, ptr %5, i32 0, i32 2
  %18 = load ptr, ptr %17, align 8, !tbaa !491
  %19 = getelementptr inbounds nuw %struct.ImVector.21, ptr %5, i32 0, i32 0
  %20 = load i32, ptr %19, align 8, !tbaa !492
  %21 = sext i32 %20 to i64
  %22 = getelementptr inbounds ptr, ptr %18, i64 %21
  %23 = load ptr, ptr %4, align 8, !tbaa !426
  call void @llvm.memcpy.p0.p0.i64(ptr align 8 %22, ptr align 8 %23, i64 8, i1 false)
  %24 = getelementptr inbounds nuw %struct.ImVector.21, ptr %5, i32 0, i32 0
  %25 = load i32, ptr %24, align 8, !tbaa !492
  %26 = add nsw i32 %25, 1
  store i32 %26, ptr %24, align 8, !tbaa !492
  ret void
}

; Function Attrs: inlinehint mustprogress uwtable
define linkonce_odr dso_local void @_ZN15ExampleTreeNodeC2Ev(ptr noundef nonnull align 8 dereferenceable(72) %0) unnamed_addr #11 comdat align 2 personality ptr @__gxx_personality_v0 {
  %2 = alloca ptr, align 8
  %3 = alloca ptr, align 8
  %4 = alloca i32, align 4
  store ptr %0, ptr %2, align 8, !tbaa !423
  %5 = load ptr, ptr %2, align 8
  %6 = getelementptr inbounds nuw %struct.ExampleTreeNode, ptr %5, i32 0, i32 0
  call void @llvm.memcpy.p0.p0.i64(ptr align 8 %6, ptr align 1 @.str.1134, i64 28, i1 false), !tbaa.struct !505
  %7 = getelementptr inbounds nuw %struct.ExampleTreeNode, ptr %5, i32 0, i32 1
  store i32 0, ptr %7, align 4, !tbaa !489
  %8 = getelementptr inbounds nuw %struct.ExampleTreeNode, ptr %5, i32 0, i32 2
  store ptr null, ptr %8, align 8, !tbaa !503
  %9 = getelementptr inbounds nuw %struct.ExampleTreeNode, ptr %5, i32 0, i32 3
  call void @_ZN8ImVectorIP15ExampleTreeNodeEC2Ev(ptr noundef nonnull align 8 dereferenceable(16) %9)
  %10 = getelementptr inbounds nuw %struct.ExampleTreeNode, ptr %5, i32 0, i32 4
  store i16 0, ptr %10, align 8, !tbaa !504
  %11 = getelementptr inbounds nuw %struct.ExampleTreeNode, ptr %5, i32 0, i32 5
  store i8 0, ptr %11, align 2, !tbaa !475
  %12 = getelementptr inbounds nuw %struct.ExampleTreeNode, ptr %5, i32 0, i32 6
  store i8 1, ptr %12, align 1, !tbaa !506
  %13 = getelementptr inbounds nuw %struct.ExampleTreeNode, ptr %5, i32 0, i32 7
  store i32 128, ptr %13, align 4, !tbaa !507
  %14 = getelementptr inbounds nuw %struct.ExampleTreeNode, ptr %5, i32 0, i32 8
  invoke void @_ZN6ImVec2C2Eff(ptr noundef nonnull align 4 dereferenceable(8) %14, float noundef 0.000000e+00, float noundef 0x400921FB00000000)
          to label %15 unwind label %16

15:                                               ; preds = %1
  ret void

16:                                               ; preds = %1
  %17 = landingpad { ptr, i32 }
          cleanup
  %18 = extractvalue { ptr, i32 } %17, 0
  store ptr %18, ptr %3, align 8
  %19 = extractvalue { ptr, i32 } %17, 1
  store i32 %19, ptr %4, align 4
  call void @_ZN8ImVectorIP15ExampleTreeNodeED2Ev(ptr noundef nonnull align 8 dereferenceable(16) %9) #7
  br label %20

20:                                               ; preds = %16
  %21 = load ptr, ptr %3, align 8
  %22 = load i32, ptr %4, align 4
  %23 = insertvalue { ptr, i32 } poison, ptr %21, 0
  %24 = insertvalue { ptr, i32 } %23, i32 %22, 1
  resume { ptr, i32 } %24
}

; Function Attrs: inlinehint mustprogress nounwind uwtable
define linkonce_odr dso_local noundef ptr @_Znwm12ImNewWrapperPv(i64 noundef %0, ptr noundef %1) #6 comdat {
  %3 = alloca i64, align 8
  %4 = alloca ptr, align 8
  store i64 %0, ptr %3, align 8, !tbaa !453
  store ptr %1, ptr %4, align 8, !tbaa !43
  %5 = load ptr, ptr %4, align 8, !tbaa !43
  ret ptr %5
}

; Function Attrs: mustprogress uwtable
define internal noundef ptr @_ZL22ExampleTree_CreateNodePKciP15ExampleTreeNode(ptr noundef %0, i32 noundef %1, ptr noundef %2) #0 personality ptr @__gxx_personality_v0 {
  %4 = alloca ptr, align 8
  %5 = alloca i32, align 4
  %6 = alloca ptr, align 8
  %7 = alloca ptr, align 8
  %8 = alloca ptr, align 8
  %9 = alloca i32, align 4
  store ptr %0, ptr %4, align 8, !tbaa !103
  store i32 %1, ptr %5, align 4, !tbaa !33
  store ptr %2, ptr %6, align 8, !tbaa !423
  call void @llvm.lifetime.start.p0(i64 8, ptr %7) #7
  %10 = call noundef ptr @_ZN5ImGui8MemAllocEm(i64 noundef 72)
  %11 = call noundef ptr @_Znwm12ImNewWrapperPv(i64 noundef 72, ptr noundef %10)
  invoke void @_ZN15ExampleTreeNodeC2Ev(ptr noundef nonnull align 8 dereferenceable(72) %11)
          to label %12 unwind label %44

12:                                               ; preds = %3
  store ptr %11, ptr %7, align 8, !tbaa !423
  %13 = load ptr, ptr %7, align 8, !tbaa !423
  %14 = getelementptr inbounds nuw %struct.ExampleTreeNode, ptr %13, i32 0, i32 0
  %15 = getelementptr inbounds [28 x i8], ptr %14, i64 0, i64 0
  %16 = load ptr, ptr %4, align 8, !tbaa !103
  %17 = call i32 (ptr, i64, ptr, ...) @snprintf(ptr noundef %15, i64 noundef 28, ptr noundef @.str.1010, ptr noundef %16) #7
  %18 = load i32, ptr %5, align 4, !tbaa !33
  %19 = load ptr, ptr %7, align 8, !tbaa !423
  %20 = getelementptr inbounds nuw %struct.ExampleTreeNode, ptr %19, i32 0, i32 1
  store i32 %18, ptr %20, align 4, !tbaa !489
  %21 = load ptr, ptr %6, align 8, !tbaa !423
  %22 = load ptr, ptr %7, align 8, !tbaa !423
  %23 = getelementptr inbounds nuw %struct.ExampleTreeNode, ptr %22, i32 0, i32 2
  store ptr %21, ptr %23, align 8, !tbaa !503
  %24 = load ptr, ptr %6, align 8, !tbaa !423
  %25 = icmp ne ptr %24, null
  br i1 %25, label %26, label %33

26:                                               ; preds = %12
  %27 = load ptr, ptr %6, align 8, !tbaa !423
  %28 = getelementptr inbounds nuw %struct.ExampleTreeNode, ptr %27, i32 0, i32 3
  %29 = getelementptr inbounds nuw %struct.ImVector.21, ptr %28, i32 0, i32 0
  %30 = load i32, ptr %29, align 8, !tbaa !493
  %31 = trunc i32 %30 to i16
  %32 = zext i16 %31 to i32
  br label %34

33:                                               ; preds = %12
  br label %34

34:                                               ; preds = %33, %26
  %35 = phi i32 [ %32, %26 ], [ 0, %33 ]
  %36 = trunc i32 %35 to i16
  %37 = load ptr, ptr %7, align 8, !tbaa !423
  %38 = getelementptr inbounds nuw %struct.ExampleTreeNode, ptr %37, i32 0, i32 4
  store i16 %36, ptr %38, align 8, !tbaa !504
  %39 = load ptr, ptr %6, align 8, !tbaa !423
  %40 = icmp ne ptr %39, null
  br i1 %40, label %41, label %48

41:                                               ; preds = %34
  %42 = load ptr, ptr %6, align 8, !tbaa !423
  %43 = getelementptr inbounds nuw %struct.ExampleTreeNode, ptr %42, i32 0, i32 3
  call void @_ZN8ImVectorIP15ExampleTreeNodeE9push_backERKS1_(ptr noundef nonnull align 8 dereferenceable(16) %43, ptr noundef nonnull align 8 dereferenceable(8) %7)
  br label %48

44:                                               ; preds = %3
  %45 = landingpad { ptr, i32 }
          cleanup
  %46 = extractvalue { ptr, i32 } %45, 0
  store ptr %46, ptr %8, align 8
  %47 = extractvalue { ptr, i32 } %45, 1
  store i32 %47, ptr %9, align 4
  call void @_ZdlPv12ImNewWrapperS_(ptr noundef %11, ptr noundef %10) #7
  call void @llvm.lifetime.end.p0(i64 8, ptr %7) #7
  br label %50

48:                                               ; preds = %41, %34
  %49 = load ptr, ptr %7, align 8, !tbaa !423
  call void @llvm.lifetime.end.p0(i64 8, ptr %7) #7
  ret ptr %49

50:                                               ; preds = %44
  %51 = load ptr, ptr %8, align 8
  %52 = load i32, ptr %9, align 4
  %53 = insertvalue { ptr, i32 } poison, ptr %51, 0
  %54 = insertvalue { ptr, i32 } %53, i32 %52, 1
  resume { ptr, i32 } %54
}