; Function Attrs: mustprogress uwtable
define internal fastcc noundef ptr @_ZL22ExampleTree_CreateNodePKciP15ExampleTreeNode(ptr noundef %0, i32 noundef range(i32 -2147483647, -2147483648) %1, ptr noundef %2) unnamed_addr #2 personality ptr @__gxx_personality_v0 {
  %4 = tail call noundef ptr @_ZN5ImGui8MemAllocEm(i64 noundef 72)
  %5 = getelementptr inbounds nuw i8, ptr %4, i64 59
  tail call void @llvm.memset.p0.i64(ptr noundef nonnull align 8 dereferenceable(72) %4, i8 0, i64 59, i1 false)
  store i8 1, ptr %5, align 1, !tbaa !462
  %6 = getelementptr inbounds nuw i8, ptr %4, i64 60
  store i32 128, ptr %6, align 4, !tbaa !464
  %7 = getelementptr inbounds nuw i8, ptr %4, i64 64
  store float 0.000000e+00, ptr %7, align 4, !tbaa !42
  %8 = getelementptr inbounds nuw i8, ptr %4, i64 68
  store float 0x400921FB00000000, ptr %8, align 4, !tbaa !44
  %9 = tail call i32 (ptr, i64, ptr, ...) @snprintf(ptr noundef nonnull dereferenceable(1) %4, i64 noundef 28, ptr noundef nonnull @.str.1010, ptr noundef %0) #33
  %10 = getelementptr inbounds nuw i8, ptr %4, i64 28
  store i32 %1, ptr %10, align 4, !tbaa !465
  %11 = getelementptr inbounds nuw i8, ptr %4, i64 32
  store ptr %2, ptr %11, align 8, !tbaa !468
  %.not = icmp eq ptr %2, null
  br i1 %.not, label %.critedge, label %12

12:                                               ; preds = %3
  %13 = getelementptr inbounds nuw i8, ptr %2, i64 40
  %14 = load i32, ptr %13, align 8, !tbaa !469
  %15 = trunc i32 %14 to i16
  %16 = getelementptr inbounds nuw i8, ptr %4, i64 56
  store i16 %15, ptr %16, align 8, !tbaa !466
  %17 = getelementptr inbounds nuw i8, ptr %2, i64 44
  %18 = load i32, ptr %17, align 4, !tbaa !470
  %19 = icmp eq i32 %14, %18
  br i1 %19, label %20, label %._ZN8ImVectorIP15ExampleTreeNodeE7reserveEi.exit_crit_edge.i

._ZN8ImVectorIP15ExampleTreeNodeE7reserveEi.exit_crit_edge.i: ; preds = %12
  %.phi.trans.insert.i = getelementptr inbounds nuw i8, ptr %2, i64 48
  %.pre.i = load ptr, ptr %.phi.trans.insert.i, align 8, !tbaa !435
  br label %_ZN8ImVectorIP15ExampleTreeNodeE9push_backERKS1_.exit

20:                                               ; preds = %12
  %21 = add nsw i32 %14, 1
  %.not.i.i = icmp eq i32 %14, 0
  br i1 %.not.i.i, label %_ZNK8ImVectorIP15ExampleTreeNodeE14_grow_capacityEi.exit.i, label %22

22:                                               ; preds = %20
  %23 = sdiv i32 %14, 2
  %24 = add nsw i32 %23, %14
  br label %_ZNK8ImVectorIP15ExampleTreeNodeE14_grow_capacityEi.exit.i

_ZNK8ImVectorIP15ExampleTreeNodeE14_grow_capacityEi.exit.i: ; preds = %22, %20
  %25 = phi i32 [ %24, %22 ], [ 8, %20 ]
  %26 = tail call noundef i32 @llvm.smax.i32(i32 %25, i32 %21)
  %27 = sext i32 %26 to i64
  %28 = shl nsw i64 %27, 3
  %29 = tail call noundef ptr @_ZN5ImGui8MemAllocEm(i64 noundef %28)
  %30 = getelementptr inbounds nuw i8, ptr %2, i64 48
  %31 = load ptr, ptr %30, align 8, !tbaa !435
  %.not6.i.i = icmp eq ptr %31, null
  br i1 %.not6.i.i, label %37, label %32

32:                                               ; preds = %_ZNK8ImVectorIP15ExampleTreeNodeE14_grow_capacityEi.exit.i
  %33 = load i32, ptr %13, align 8, !tbaa !438
  %34 = sext i32 %33 to i64
  %35 = shl nsw i64 %34, 3
  tail call void @llvm.memcpy.p0.p0.i64(ptr align 8 %29, ptr nonnull align 8 %31, i64 %35, i1 false)
  %36 = load ptr, ptr %30, align 8, !tbaa !435
  tail call void @_ZN5ImGui7MemFreeEPv(ptr noundef %36)
  br label %37

37:                                               ; preds = %32, %_ZNK8ImVectorIP15ExampleTreeNodeE14_grow_capacityEi.exit.i
  store ptr %29, ptr %30, align 8, !tbaa !435
  store i32 %26, ptr %17, align 4, !tbaa !470
  %.pre3.i = load i32, ptr %13, align 8, !tbaa !438
  br label %_ZN8ImVectorIP15ExampleTreeNodeE9push_backERKS1_.exit

_ZN8ImVectorIP15ExampleTreeNodeE9push_backERKS1_.exit: ; preds = %._ZN8ImVectorIP15ExampleTreeNodeE7reserveEi.exit_crit_edge.i, %37
  %38 = phi i32 [ %14, %._ZN8ImVectorIP15ExampleTreeNodeE7reserveEi.exit_crit_edge.i ], [ %.pre3.i, %37 ]
  %39 = phi ptr [ %.pre.i, %._ZN8ImVectorIP15ExampleTreeNodeE7reserveEi.exit_crit_edge.i ], [ %29, %37 ]
  %40 = sext i32 %38 to i64
  %41 = getelementptr inbounds ptr, ptr %39, i64 %40
  %42 = ptrtoint ptr %4 to i64
  store i64 %42, ptr %41, align 8
  %43 = load i32, ptr %13, align 8, !tbaa !438
  %44 = add nsw i32 %43, 1
  store i32 %44, ptr %13, align 8, !tbaa !438
  br label %46

.critedge:                                        ; preds = %3
  %45 = getelementptr inbounds nuw i8, ptr %4, i64 56
  store i16 0, ptr %45, align 8, !tbaa !466
  br label %46

46:                                               ; preds = %.critedge, %_ZN8ImVectorIP15ExampleTreeNodeE9push_backERKS1_.exit
  ret ptr %4
}